ccopy_reg
_reconstructor
p1
(cbi_ner_model
Config
p2
c__builtin__
object
p3
NtRp4
(dp5
S'learning_rate'
p6
F0.002
sS'grad_clip'
p7
F5
sS'rnn_size'
p8
I128
sS'save_dir'
p9
S'save/12345'
p10
sS'validate_every'
p11
I10
sS'output_size'
p12
I4
sS'exit_after'
p13
I50
sS'keep_prob'
p14
F0.5
sS'num_epochs'
p15
I50
sS'batch_size'
p16
I1
sS'save_every'
p17
I2000
sS'instance_name'
p18
S'12345'
p19
sS'decay_rate'
p20
F0.97499999999999998
sS'seq_length'
p21
I60
sS'num_layers'
p22
I3
sS'data_dir'
p23
S'data'
p24
sS'infer'
p25
I01
sb.